target datalayout = "e-m:e-p270:32:32-p271:32:32-p272:64:64-i64:64-i128:128-f80:128-n8:16:32:64-S128"
target triple = "x86_64-unknown-linux-gnu"

%"class.std::complex" = type { { double, double } }
%"struct.std::pair.35" = type { %"class.std::complex", %"class.std::complex" }

; Function Attrs: mustprogress nounwind uwtable
define linkonce_odr noundef nonnull align 8 dereferenceable(16) ptr @_ZNSt7complexIdEdVEd(ptr noundef nonnull align 8 dereferenceable(16) %this, double noundef %__d) #1 comdat align 2 {
entry:
  %this.addr = alloca ptr, align 8
  %__d.addr = alloca double, align 8
  store ptr %this, ptr %this.addr, align 8, !tbaa !3
  store double %__d, ptr %__d.addr, align 8, !tbaa !16
  %this1 = load ptr, ptr %this.addr, align 8
  %0 = load double, ptr %__d.addr, align 8, !tbaa !16
  %_M_value = getelementptr inbounds nuw %"class.std::complex", ptr %this1, i32 0, i32 0
  %_M_value.realp = getelementptr inbounds nuw { double, double }, ptr %_M_value, i32 0, i32 0
  %_M_value.real = load double, ptr %_M_value.realp, align 8
  %_M_value.imagp = getelementptr inbounds nuw { double, double }, ptr %_M_value, i32 0, i32 1
  %_M_value.imag = load double, ptr %_M_value.imagp, align 8
  %1 = fdiv double %_M_value.real, %0
  %2 = fdiv double %_M_value.imag, %0
  %_M_value.realp2 = getelementptr inbounds nuw { double, double }, ptr %_M_value, i32 0, i32 0
  %_M_value.imagp3 = getelementptr inbounds nuw { double, double }, ptr %_M_value, i32 0, i32 1
  store double %1, ptr %_M_value.realp2, align 8
  store double %2, ptr %_M_value.imagp3, align 8
  ret ptr %this1
}

; Function Attrs: mustprogress nounwind uwtable
define linkonce_odr noundef nonnull align 8 dereferenceable(16) ptr @_ZNSt7complexIdEmLEd(ptr noundef nonnull align 8 dereferenceable(16) %this, double noundef %__d) #1 comdat align 2 {
entry:
  %this.addr = alloca ptr, align 8
  %__d.addr = alloca double, align 8
  store ptr %this, ptr %this.addr, align 8, !tbaa !3
  store double %__d, ptr %__d.addr, align 8, !tbaa !16
  %this1 = load ptr, ptr %this.addr, align 8
  %0 = load double, ptr %__d.addr, align 8, !tbaa !16
  %_M_value = getelementptr inbounds nuw %"class.std::complex", ptr %this1, i32 0, i32 0
  %_M_value.realp = getelementptr inbounds nuw { double, double }, ptr %_M_value, i32 0, i32 0
  %_M_value.real = load double, ptr %_M_value.realp, align 8
  %_M_value.imagp = getelementptr inbounds nuw { double, double }, ptr %_M_value, i32 0, i32 1
  %_M_value.imag = load double, ptr %_M_value.imagp, align 8
  %mul.rl = fmul double %_M_value.real, %0
  %mul.il = fmul double %_M_value.imag, %0
  %_M_value.realp2 = getelementptr inbounds nuw { double, double }, ptr %_M_value, i32 0, i32 0
  %_M_value.imagp3 = getelementptr inbounds nuw { double, double }, ptr %_M_value, i32 0, i32 1
  store double %mul.rl, ptr %_M_value.realp2, align 8
  store double %mul.il, ptr %_M_value.imagp3, align 8
  ret ptr %this1
}

; Function Attrs: mustprogress nounwind uwtable
define linkonce_odr noundef { double, double } @_ZNKSt7complexIdE5__repEv(ptr noundef nonnull align 8 dereferenceable(16) %this) #1 comdat align 2 {
entry:
  %retval = alloca { double, double }, align 8
  %this.addr = alloca ptr, align 8
  store ptr %this, ptr %this.addr, align 8, !tbaa !3
  %this1 = load ptr, ptr %this.addr, align 8
  %_M_value = getelementptr inbounds nuw %"class.std::complex", ptr %this1, i32 0, i32 0
  %_M_value.realp = getelementptr inbounds nuw { double, double }, ptr %_M_value, i32 0, i32 0
  %_M_value.real = load double, ptr %_M_value.realp, align 8
  %_M_value.imagp = getelementptr inbounds nuw { double, double }, ptr %_M_value, i32 0, i32 1
  %_M_value.imag = load double, ptr %_M_value.imagp, align 8
  %retval.realp = getelementptr inbounds nuw { double, double }, ptr %retval, i32 0, i32 0
  %retval.imagp = getelementptr inbounds nuw { double, double }, ptr %retval, i32 0, i32 1
  store double %_M_value.real, ptr %retval.realp, align 8
  store double %_M_value.imag, ptr %retval.imagp, align 8
  %0 = load { double, double }, ptr %retval, align 8
  ret { double, double } %0
}

; Function Attrs: mustprogress nounwind uwtable
define linkonce_odr void @_ZNSt4pairISt7complexIdES1_EC2IRS1_S4_TnNSt9enable_ifIXaaclsr5_PCCPE22_MoveConstructiblePairIT_T0_EEclsr5_PCCPE30_ImplicitlyMoveConvertiblePairIS6_S7_EEEbE4typeELb1EEEOS6_OS7_(ptr noundef nonnull align 8 dereferenceable(32) %this, ptr noundef nonnull align 8 dereferenceable(16) %__x, ptr noundef nonnull align 8 dereferenceable(16) %__y) unnamed_addr #1 comdat align 2 {
entry:
  %this.addr = alloca ptr, align 8
  %__x.addr = alloca ptr, align 8
  %__y.addr = alloca ptr, align 8
  store ptr %this, ptr %this.addr, align 8, !tbaa !3
  store ptr %__x, ptr %__x.addr, align 8, !tbaa !3
  store ptr %__y, ptr %__y.addr, align 8, !tbaa !3
  %this1 = load ptr, ptr %this.addr, align 8
  %first = getelementptr inbounds nuw %"struct.std::pair.35", ptr %this1, i32 0, i32 0
  %0 = load ptr, ptr %__x.addr, align 8, !tbaa !3
  call void @llvm.memcpy.p0.p0.i64(ptr align 8 %first, ptr align 8 %0, i64 16, i1 false), !tbaa.struct !95
  %second = getelementptr inbounds nuw %"struct.std::pair.35", ptr %this1, i32 0, i32 1
  %1 = load ptr, ptr %__y.addr, align 8, !tbaa !3
  call void @llvm.memcpy.p0.p0.i64(ptr align 8 %second, ptr align 8 %1, i64 16, i1 false), !tbaa.struct !95
  ret void
}

; Function Attrs: inlinehint mustprogress uwtable
define linkonce_odr { double, double } @_ZStdvIdESt7complexIT_ERKS2_RKS1_(ptr noundef nonnull align 8 dereferenceable(16) %__x, ptr noundef nonnull align 8 dereferenceable(8) %__y) #4 comdat {
entry:
  %retval = alloca %"class.std::complex", align 8
  %__x.addr = alloca ptr, align 8
  %__y.addr = alloca ptr, align 8
  store ptr %__x, ptr %__x.addr, align 8, !tbaa !3
  store ptr %__y, ptr %__y.addr, align 8, !tbaa !3
  %0 = load ptr, ptr %__x.addr, align 8, !tbaa !3
  call void @llvm.memcpy.p0.p0.i64(ptr align 8 %retval, ptr align 8 %0, i64 16, i1 false), !tbaa.struct !95
  %1 = load ptr, ptr %__y.addr, align 8, !tbaa !3
  %2 = load double, ptr %1, align 8, !tbaa !16
  %call = call noundef nonnull align 8 dereferenceable(16) ptr @_ZNSt7complexIdEdVEd(ptr noundef nonnull align 8 dereferenceable(16) %retval, double noundef %2)
  %coerce.dive = getelementptr inbounds nuw %"class.std::complex", ptr %retval, i32 0, i32 0
  %3 = load { double, double }, ptr %coerce.dive, align 8
  ret { double, double } %3
}

; Function Attrs: inlinehint mustprogress nounwind uwtable
define linkonce_odr { double, double } @_ZStmlIdESt7complexIT_ERKS2_RKS1_(ptr noundef nonnull align 8 dereferenceable(16) %__x, ptr noundef nonnull align 8 dereferenceable(8) %__y) #5 comdat {
entry:
  %retval = alloca %"class.std::complex", align 8
  %__x.addr = alloca ptr, align 8
  %__y.addr = alloca ptr, align 8
  store ptr %__x, ptr %__x.addr, align 8, !tbaa !3
  store ptr %__y, ptr %__y.addr, align 8, !tbaa !3
  %0 = load ptr, ptr %__x.addr, align 8, !tbaa !3
  call void @llvm.memcpy.p0.p0.i64(ptr align 8 %retval, ptr align 8 %0, i64 16, i1 false), !tbaa.struct !95
  %1 = load ptr, ptr %__y.addr, align 8, !tbaa !3
  %2 = load double, ptr %1, align 8, !tbaa !16
  %call = call noundef nonnull align 8 dereferenceable(16) ptr @_ZNSt7complexIdEmLEd(ptr noundef nonnull align 8 dereferenceable(16) %retval, double noundef %2)
  %coerce.dive = getelementptr inbounds nuw %"class.std::complex", ptr %retval, i32 0, i32 0
  %3 = load { double, double }, ptr %coerce.dive, align 8
  ret { double, double } %3
}

; Function Attrs: mustprogress nounwind uwtable
define linkonce_odr noundef nonnull align 8 dereferenceable(16) ptr @_ZNSt7complexIdEpLIdEERS0_RKS_IT_E(ptr noundef nonnull align 8 dereferenceable(16) %this, ptr noundef nonnull align 8 dereferenceable(16) %__z) #1 comdat align 2 {
entry:
  %this.addr = alloca ptr, align 8
  %__z.addr = alloca ptr, align 8
  store ptr %this, ptr %this.addr, align 8, !tbaa !3
  store ptr %__z, ptr %__z.addr, align 8, !tbaa !3
  %this1 = load ptr, ptr %this.addr, align 8
  %0 = load ptr, ptr %__z.addr, align 8, !tbaa !3
  %call = call noundef { double, double } @_ZNKSt7complexIdE5__repEv(ptr noundef nonnull align 8 dereferenceable(16) %0)
  %1 = extractvalue { double, double } %call, 0
  %2 = extractvalue { double, double } %call, 1
  %_M_value = getelementptr inbounds nuw %"class.std::complex", ptr %this1, i32 0, i32 0
  %_M_value.realp = getelementptr inbounds nuw { double, double }, ptr %_M_value, i32 0, i32 0
  %_M_value.real = load double, ptr %_M_value.realp, align 8
  %_M_value.imagp = getelementptr inbounds nuw { double, double }, ptr %_M_value, i32 0, i32 1
  %_M_value.imag = load double, ptr %_M_value.imagp, align 8
  %add.r = fadd double %_M_value.real, %1
  %add.i = fadd double %_M_value.imag, %2
  %_M_value.realp2 = getelementptr inbounds nuw { double, double }, ptr %_M_value, i32 0, i32 0
  %_M_value.imagp3 = getelementptr inbounds nuw { double, double }, ptr %_M_value, i32 0, i32 1
  store double %add.r, ptr %_M_value.realp2, align 8
  store double %add.i, ptr %_M_value.imagp3, align 8
  ret ptr %this1
}

; Function Attrs: mustprogress nounwind uwtable
define linkonce_odr void @_ZNSt7complexIdEC2Edd(ptr noundef nonnull align 8 dereferenceable(16) %this, double noundef %__r, double noundef %__i) unnamed_addr #1 comdat align 2 {
entry:
  %this.addr = alloca ptr, align 8
  %__r.addr = alloca double, align 8
  %__i.addr = alloca double, align 8
  store ptr %this, ptr %this.addr, align 8, !tbaa !3
  store double %__r, ptr %__r.addr, align 8, !tbaa !16
  store double %__i, ptr %__i.addr, align 8, !tbaa !16
  %this1 = load ptr, ptr %this.addr, align 8
  %_M_value = getelementptr inbounds nuw %"class.std::complex", ptr %this1, i32 0, i32 0
  %0 = load double, ptr %__r.addr, align 8, !tbaa !16
  %1 = load double, ptr %__i.addr, align 8, !tbaa !16
  %_M_value.realp = getelementptr inbounds nuw { double, double }, ptr %_M_value, i32 0, i32 0
  %_M_value.imagp = getelementptr inbounds nuw { double, double }, ptr %_M_value, i32 0, i32 1
  store double %0, ptr %_M_value.realp, align 8
  store double %1, ptr %_M_value.imagp, align 8
  ret void
}

; Function Attrs: mustprogress uwtable
define void @_ZNK8QuantLib56AnalyticContinuousGeometricAveragePriceAsianHestonEngine9F_F_tildeERKSt7complexIdES4_S4_S4_dm(ptr dead_on_unwind noalias writable sret(%"struct.std::pair.35") align 8 %agg.result, ptr noundef nonnull align 8 dereferenceable(584) %this, ptr noundef nonnull align 8 dereferenceable(16) %z1, ptr noundef nonnull align 8 dereferenceable(16) %z2, ptr noundef nonnull align 8 dereferenceable(16) %z3, ptr noundef nonnull align 8 dereferenceable(16) %z4, double noundef %tau, i64 noundef %cutoff) #2 align 2 {
entry:
  %this.addr = alloca ptr, align 8
  %z1.addr = alloca ptr, align 8
  %z2.addr = alloca ptr, align 8
  %z3.addr = alloca ptr, align 8
  %z4.addr = alloca ptr, align 8
  %tau.addr = alloca double, align 8
  %cutoff.addr = alloca i64, align 8
  %temp = alloca %"class.std::complex", align 8
  %runningSum1 = alloca %"class.std::complex", align 8
  %runningSum2 = alloca %"class.std::complex", align 8
  %i = alloca i64, align 8
  %ref.tmp = alloca %"class.std::complex", align 8
  %ref.tmp3 = alloca %"class.std::complex", align 8
  %ref.tmp4 = alloca %"class.std::complex", align 8
  %ref.tmp5 = alloca double, align 8
  store ptr %this, ptr %this.addr, align 8, !tbaa !3
  store ptr %z1, ptr %z1.addr, align 8, !tbaa !3
  store ptr %z2, ptr %z2.addr, align 8, !tbaa !3
  store ptr %z3, ptr %z3.addr, align 8, !tbaa !3
  store ptr %z4, ptr %z4.addr, align 8, !tbaa !3
  store double %tau, ptr %tau.addr, align 8, !tbaa !16
  store i64 %cutoff, ptr %cutoff.addr, align 8, !tbaa !14
  %this1 = load ptr, ptr %this.addr, align 8
  call void @llvm.lifetime.start.p0(i64 16, ptr %temp) #15
  call void @_ZNSt7complexIdEC2Edd(ptr noundef nonnull align 8 dereferenceable(16) %temp, double noundef 0.000000e+00, double noundef 0.000000e+00)
  call void @llvm.lifetime.start.p0(i64 16, ptr %runningSum1) #15
  call void @_ZNSt7complexIdEC2Edd(ptr noundef nonnull align 8 dereferenceable(16) %runningSum1, double noundef 0.000000e+00, double noundef 0.000000e+00)
  call void @llvm.lifetime.start.p0(i64 16, ptr %runningSum2) #15
  call void @_ZNSt7complexIdEC2Edd(ptr noundef nonnull align 8 dereferenceable(16) %runningSum2, double noundef 0.000000e+00, double noundef 0.000000e+00)
  call void @llvm.lifetime.start.p0(i64 8, ptr %i) #15
  store i64 0, ptr %i, align 8, !tbaa !14
  br label %for.cond

for.cond:                                         ; preds = %for.inc, %entry
  %0 = load i64, ptr %i, align 8, !tbaa !14
  %1 = load i64, ptr %cutoff.addr, align 8, !tbaa !14
  %cmp = icmp ult i64 %0, %1
  br i1 %cmp, label %for.body, label %for.cond.cleanup

for.cond.cleanup:                                 ; preds = %for.cond
  call void @llvm.lifetime.end.p0(i64 8, ptr %i) #15
  br label %for.end

for.body:                                         ; preds = %for.cond
  call void @llvm.lifetime.start.p0(i64 16, ptr %ref.tmp) #15
  %2 = load ptr, ptr %z1.addr, align 8, !tbaa !3
  %3 = load ptr, ptr %z2.addr, align 8, !tbaa !3
  %4 = load ptr, ptr %z3.addr, align 8, !tbaa !3
  %5 = load ptr, ptr %z4.addr, align 8, !tbaa !3
  %6 = load i64, ptr %i, align 8, !tbaa !14
  %conv = trunc i64 %6 to i32
  %7 = load double, ptr %tau.addr, align 8, !tbaa !16
  %call = call { double, double } @_ZNK8QuantLib56AnalyticContinuousGeometricAveragePriceAsianHestonEngine1fERKSt7complexIdES4_S4_S4_id(ptr noundef nonnull align 8 dereferenceable(584) %this1, ptr noundef nonnull align 8 dereferenceable(16) %2, ptr noundef nonnull align 8 dereferenceable(16) %3, ptr noundef nonnull align 8 dereferenceable(16) %4, ptr noundef nonnull align 8 dereferenceable(16) %5, i32 noundef %conv, double noundef %7)
  %coerce.dive = getelementptr inbounds nuw %"class.std::complex", ptr %ref.tmp, i32 0, i32 0
  %8 = getelementptr inbounds nuw { double, double }, ptr %coerce.dive, i32 0, i32 0
  %9 = extractvalue { double, double } %call, 0
  store double %9, ptr %8, align 8
  %10 = getelementptr inbounds nuw { double, double }, ptr %coerce.dive, i32 0, i32 1
  %11 = extractvalue { double, double } %call, 1
  store double %11, ptr %10, align 8
  call void @llvm.memcpy.p0.p0.i64(ptr align 8 %temp, ptr align 8 %ref.tmp, i64 16, i1 false), !tbaa.struct !95
  call void @llvm.lifetime.end.p0(i64 16, ptr %ref.tmp) #15
  %call2 = call noundef nonnull align 8 dereferenceable(16) ptr @_ZNSt7complexIdEpLIdEERS0_RKS_IT_E(ptr noundef nonnull align 8 dereferenceable(16) %runningSum1, ptr noundef nonnull align 8 dereferenceable(16) %temp)
  call void @llvm.lifetime.start.p0(i64 16, ptr %ref.tmp3) #15
  call void @llvm.lifetime.start.p0(i64 16, ptr %ref.tmp4) #15
  call void @llvm.lifetime.start.p0(i64 8, ptr %ref.tmp5) #15
  %12 = load i64, ptr %i, align 8, !tbaa !14
  %conv6 = uitofp i64 %12 to double
  store double %conv6, ptr %ref.tmp5, align 8, !tbaa !16
  %call7 = call { double, double } @_ZStmlIdESt7complexIT_ERKS2_RKS1_(ptr noundef nonnull align 8 dereferenceable(16) %temp, ptr noundef nonnull align 8 dereferenceable(8) %ref.tmp5)
  %coerce.dive8 = getelementptr inbounds nuw %"class.std::complex", ptr %ref.tmp4, i32 0, i32 0
  %13 = getelementptr inbounds nuw { double, double }, ptr %coerce.dive8, i32 0, i32 0
  %14 = extractvalue { double, double } %call7, 0
  store double %14, ptr %13, align 8
  %15 = getelementptr inbounds nuw { double, double }, ptr %coerce.dive8, i32 0, i32 1
  %16 = extractvalue { double, double } %call7, 1
  store double %16, ptr %15, align 8
  %call9 = call { double, double } @_ZStdvIdESt7complexIT_ERKS2_RKS1_(ptr noundef nonnull align 8 dereferenceable(16) %ref.tmp4, ptr noundef nonnull align 8 dereferenceable(8) %tau.addr)
  %coerce.dive10 = getelementptr inbounds nuw %"class.std::complex", ptr %ref.tmp3, i32 0, i32 0
  %17 = getelementptr inbounds nuw { double, double }, ptr %coerce.dive10, i32 0, i32 0
  %18 = extractvalue { double, double } %call9, 0
  store double %18, ptr %17, align 8
  %19 = getelementptr inbounds nuw { double, double }, ptr %coerce.dive10, i32 0, i32 1
  %20 = extractvalue { double, double } %call9, 1
  store double %20, ptr %19, align 8
  %call11 = call noundef nonnull align 8 dereferenceable(16) ptr @_ZNSt7complexIdEpLIdEERS0_RKS_IT_E(ptr noundef nonnull align 8 dereferenceable(16) %runningSum2, ptr noundef nonnull align 8 dereferenceable(16) %ref.tmp3)
  call void @llvm.lifetime.end.p0(i64 8, ptr %ref.tmp5) #15
  call void @llvm.lifetime.end.p0(i64 16, ptr %ref.tmp4) #15
  call void @llvm.lifetime.end.p0(i64 16, ptr %ref.tmp3) #15
  br label %for.inc

for.inc:                                          ; preds = %for.body
  %21 = load i64, ptr %i, align 8, !tbaa !14
  %inc = add i64 %21, 1
  store i64 %inc, ptr %i, align 8, !tbaa !14
  br label %for.cond, !llvm.loop !104

for.end:                                          ; preds = %for.cond.cleanup
  call void @_ZNSt4pairISt7complexIdES1_EC2IRS1_S4_TnNSt9enable_ifIXaaclsr5_PCCPE22_MoveConstructiblePairIT_T0_EEclsr5_PCCPE30_ImplicitlyMoveConvertiblePairIS6_S7_EEEbE4typeELb1EEEOS6_OS7_(ptr noundef nonnull align 8 dereferenceable(32) %agg.result, ptr noundef nonnull align 8 dereferenceable(16) %runningSum1, ptr noundef nonnull align 8 dereferenceable(16) %runningSum2)
  call void @llvm.lifetime.end.p0(i64 16, ptr %runningSum2) #15
  call void @llvm.lifetime.end.p0(i64 16, ptr %runningSum1) #15
  call void @llvm.lifetime.end.p0(i64 16, ptr %temp) #15
  ret void
}