; Function Attrs: mustprogress uwtable
define void @_ZNK8QuantLib56AnalyticContinuousGeometricAveragePriceAsianHestonEngine9F_F_tildeERKSt7complexIdES4_S4_S4_dm(ptr dead_on_unwind noalias nocapture writable writeonly sret(%"struct.std::pair.35") align 8 %agg.result, ptr noundef nonnull align 8 dereferenceable(584) %this, ptr nocapture noundef nonnull readonly align 8 dereferenceable(16) %z1, ptr nocapture noundef nonnull readonly align 8 dereferenceable(16) %z2, ptr nocapture noundef nonnull readonly align 8 dereferenceable(16) %z3, ptr nocapture noundef nonnull readonly align 8 dereferenceable(16) %z4, double noundef %tau, i64 noundef %cutoff) local_unnamed_addr #8 align 2 {
entry:
  %cmp21.not = icmp eq i64 %cutoff, 0
  br i1 %cmp21.not, label %for.cond.cleanup, label %for.body

for.cond.cleanup:                                 ; preds = %for.body, %entry
  %runningSum2.sroa.0.0.lcssa = phi double [ 0.000000e+00, %entry ], [ %add.r.i18, %for.body ]
  %runningSum2.sroa.6.0.lcssa = phi double [ 0.000000e+00, %entry ], [ %add.i.i19, %for.body ]
  %runningSum1.sroa.0.0.lcssa = phi double [ 0.000000e+00, %entry ], [ %add.r.i, %for.body ]
  %runningSum1.sroa.6.0.lcssa = phi double [ 0.000000e+00, %entry ], [ %add.i.i, %for.body ]
  store double %runningSum1.sroa.0.0.lcssa, ptr %agg.result, align 8
  %runningSum1.sroa.6.0.agg.result.sroa_idx = getelementptr inbounds i8, ptr %agg.result, i64 8
  store double %runningSum1.sroa.6.0.lcssa, ptr %runningSum1.sroa.6.0.agg.result.sroa_idx, align 8, !tbaa !33
  %second.i = getelementptr inbounds nuw i8, ptr %agg.result, i64 16
  store double %runningSum2.sroa.0.0.lcssa, ptr %second.i, align 8
  %runningSum2.sroa.6.0.second.i.sroa_idx = getelementptr inbounds i8, ptr %agg.result, i64 24
  store double %runningSum2.sroa.6.0.lcssa, ptr %runningSum2.sroa.6.0.second.i.sroa_idx, align 8, !tbaa !33
  ret void

for.body:                                         ; preds = %entry, %for.body
  %i.026 = phi i64 [ %inc, %for.body ], [ 0, %entry ]
  %runningSum1.sroa.6.025 = phi double [ %add.i.i, %for.body ], [ 0.000000e+00, %entry ]
  %runningSum1.sroa.0.024 = phi double [ %add.r.i, %for.body ], [ 0.000000e+00, %entry ]
  %runningSum2.sroa.6.023 = phi double [ %add.i.i19, %for.body ], [ 0.000000e+00, %entry ]
  %runningSum2.sroa.0.022 = phi double [ %add.r.i18, %for.body ], [ 0.000000e+00, %entry ]
  %conv = trunc i64 %i.026 to i32
  %call = tail call { double, double } @_ZNK8QuantLib56AnalyticContinuousGeometricAveragePriceAsianHestonEngine1fERKSt7complexIdES4_S4_S4_id(ptr noundef nonnull align 8 dereferenceable(584) %this, ptr noundef nonnull align 8 dereferenceable(16) %z1, ptr noundef nonnull align 8 dereferenceable(16) %z2, ptr noundef nonnull align 8 dereferenceable(16) %z3, ptr noundef nonnull align 8 dereferenceable(16) %z4, i32 noundef %conv, double noundef %tau)
  %0 = extractvalue { double, double } %call, 0
  %1 = extractvalue { double, double } %call, 1
  %add.r.i = fadd double %runningSum1.sroa.0.024, %0
  %add.i.i = fadd double %runningSum1.sroa.6.025, %1
  %conv6 = uitofp i64 %i.026 to double
  %mul.rl.i.i = fmul double %0, %conv6
  %mul.il.i.i = fmul double %1, %conv6
  %2 = fdiv double %mul.rl.i.i, %tau
  %3 = fdiv double %mul.il.i.i, %tau
  %add.r.i18 = fadd double %runningSum2.sroa.0.022, %2
  %add.i.i19 = fadd double %runningSum2.sroa.6.023, %3
  %inc = add nuw i64 %i.026, 1
  %exitcond.not = icmp eq i64 %inc, %cutoff
  br i1 %exitcond.not, label %for.cond.cleanup, label %for.body, !llvm.loop !121
}